; Function Attrs: mustprogress nounwind willreturn uwtable
define noalias noundef ptr @hwloc_distances_add_create(ptr noundef captures(none) %0, ptr noundef readonly captures(address_is_null) %1, i64 noundef %2, i64 noundef %3) local_unnamed_addr #8 {
  %5 = getelementptr inbounds nuw i8, ptr %0, i64 200
  %6 = load i64, ptr %5, align 8, !tbaa !63
  %7 = and i64 %6, 2
  %.not = icmp eq i64 %7, 0
  br i1 %.not, label %8, label %10

8:                                                ; preds = %4
  %9 = tail call ptr @__errno_location() #30
  store i32 22, ptr %9, align 4, !tbaa !3
  br label %hwloc_backend_distances_add_create.exit

10:                                               ; preds = %4
  %11 = getelementptr inbounds nuw i8, ptr %0, i64 240
  %12 = load ptr, ptr %11, align 8, !tbaa !64
  %.not9 = icmp eq ptr %12, null
  br i1 %.not9, label %15, label %13

13:                                               ; preds = %10
  %14 = tail call ptr @__errno_location() #30
  store i32 1, ptr %14, align 4, !tbaa !3
  br label %hwloc_backend_distances_add_create.exit

15:                                               ; preds = %10
  %.not10 = icmp ult i64 %2, 64
  br i1 %.not10, label %16, label %24

16:                                               ; preds = %15
  %17 = and i64 %2, 3
  %18 = tail call range(i64 0, 3) i64 @llvm.ctpop.i64(i64 range(i64 0, 45) %17)
  %19 = icmp samesign ugt i64 %18, 1
  br i1 %19, label %24, label %20

20:                                               ; preds = %16
  %21 = and i64 %2, 44
  %22 = tail call range(i64 0, 4) i64 @llvm.ctpop.i64(i64 range(i64 0, 45) %21)
  %23 = icmp samesign ugt i64 %22, 1
  br i1 %23, label %24, label %26

24:                                               ; preds = %20, %16, %15
  %25 = tail call ptr @__errno_location() #30
  store i32 22, ptr %25, align 4, !tbaa !3
  br label %hwloc_backend_distances_add_create.exit

26:                                               ; preds = %20
  %.not.i = icmp eq i64 %3, 0
  br i1 %.not.i, label %29, label %27

27:                                               ; preds = %26
  %28 = tail call ptr @__errno_location() #30
  store i32 22, ptr %28, align 4, !tbaa !3
  br label %hwloc_backend_distances_add_create.exit

29:                                               ; preds = %26
  %30 = tail call noalias dereferenceable_or_null(88) ptr @calloc(i64 noundef 1, i64 noundef 88) #31
  %.not21.i = icmp eq ptr %30, null
  br i1 %.not21.i, label %hwloc_backend_distances_add_create.exit, label %31

31:                                               ; preds = %29
  %.not22.i = icmp eq ptr %1, null
  br i1 %.not22.i, label %34, label %32

32:                                               ; preds = %31
  %33 = tail call noalias ptr @strdup(ptr noundef nonnull readonly %1) #27
  store ptr %33, ptr %30, align 8, !tbaa !43
  %.not23.i = icmp eq ptr %33, null
  br i1 %.not23.i, label %42, label %34

34:                                               ; preds = %32, %31
  %35 = getelementptr inbounds nuw i8, ptr %30, i64 48
  store i64 %2, ptr %35, align 8, !tbaa !57
  %36 = getelementptr inbounds nuw i8, ptr %30, i64 56
  store i32 2, ptr %36, align 8, !tbaa !59
  %37 = getelementptr inbounds nuw i8, ptr %30, i64 12
  store i32 -1, ptr %37, align 4, !tbaa !56
  %38 = getelementptr inbounds nuw i8, ptr %0, i64 744
  %39 = load i32, ptr %38, align 8, !tbaa !50
  %40 = add i32 %39, 1
  store i32 %40, ptr %38, align 8, !tbaa !50
  %41 = getelementptr inbounds nuw i8, ptr %30, i64 8
  store i32 %39, ptr %41, align 8, !tbaa !58
  br label %hwloc_backend_distances_add_create.exit

42:                                               ; preds = %32
  tail call void @free(ptr noundef nonnull %30) #27
  br label %hwloc_backend_distances_add_create.exit

hwloc_backend_distances_add_create.exit:          ; preds = %42, %34, %29, %27, %24, %13, %8
  %.0 = phi ptr [ null, %13 ], [ null, %24 ], [ null, %8 ], [ %30, %34 ], [ null, %29 ], [ null, %42 ], [ null, %27 ]
  ret ptr %.0
}